(lp0
(dp1
S'phone_number'
p2
S''
p3
sS'city'
p4
g3
sS'last_name'
p5
g3
sS'name'
p6
g3
sS'country'
p7
S'z'
p8
sS'address'
p9
g3
sS'email'
p10
g3
sa(dp11
S'phone_number'
p12
S'a'
p13
sS'city'
p14
S'o'
p15
sS'last_name'
p16
S'v'
p17
sS'name'
p18
S'b'
p19
sS'country'
p20
S'p'
p21
sS'address'
p22
S'j'
p23
sS'email'
p24
S'l'
p25
sa(dp26
S'phone_number'
p27
S'a'
p28
sS'city'
p29
S'o'
p30
sS'last_name'
p31
S'v'
p32
sS'name'
p33
S'b'
p34
sS'country'
p35
S'p'
p36
sS'address'
p37
S'j'
p38
sS'email'
p39
S'l'
p40
sa(dp41
S'phone_number'
p42
S'a'
p43
sS'city'
p44
S'o'
p45
sS'last_name'
p46
S'v'
p47
sS'name'
p48
S'b'
p49
sS'country'
p50
S'p'
p51
sS'address'
p52
S'j'
p53
sS'email'
p54
S'l'
p55
sa(dp56
S'phone_number'
p57
S'a'
p58
sS'city'
p59
S'o'
p60
sS'last_name'
p61
S'v'
p62
sS'name'
p63
S'b'
p64
sS'country'
p65
S'p'
p66
sS'address'
p67
S'j'
p68
sS'email'
p69
S'l'
p70
sa(dp71
S'phone_number'
p72
S'a'
p73
sS'city'
p74
S'o'
p75
sS'last_name'
p76
S'v'
p77
sS'name'
p78
S'b'
p79
sS'country'
p80
S'p'
p81
sS'address'
p82
S'j'
p83
sS'email'
p84
S'l'
p85
sa(dp86
S'phone_number'
p87
S'a'
p88
sS'city'
p89
S'o'
p90
sS'last_name'
p91
S'v'
p92
sS'name'
p93
S'b'
p94
sS'country'
p95
S'p'
p96
sS'address'
p97
S'j'
p98
sS'email'
p99
S'l'
p100
sa(dp101
S'phone_number'
p102
S'a'
p103
sS'city'
p104
S'o'
p105
sS'last_name'
p106
S'v'
p107
sS'name'
p108
S'b'
p109
sS'country'
p110
S'p'
p111
sS'address'
p112
S'j'
p113
sS'email'
p114
S'l'
p115
sa(dp116
S'phone_number'
p117
S'a'
p118
sS'city'
p119
S'o'
p120
sS'last_name'
p121
S'v'
p122
sS'name'
p123
S'b'
p124
sS'country'
p125
S'p'
p126
sS'address'
p127
S'j'
p128
sS'email'
p129
S'l'
p130
sa(dp131
S'phone_number'
p132
S'a'
p133
sS'city'
p134
S'o'
p135
sS'last_name'
p136
S'v'
p137
sS'name'
p138
S'b'
p139
sS'country'
p140
S'p'
p141
sS'address'
p142
S'j'
p143
sS'email'
p144
S'l'
p145
sa(dp146
S'phone_number'
p147
S'6594'
p148
sS'city'
p149
S'sdf'
p150
sS'last_name'
p151
S'iwan'
p152
sS'name'
p153
S'andy'
p154
sS'country'
p155
S'sadf'
p156
sS'address'
p157
S'asd'
p158
sS'email'
p159
S'sdf'
p160
sa(dp161
S'phone_number'
p162
g3
sS'city'
p163
g3
sS'last_name'
p164
g3
sS'name'
p165
g3
sS'country'
p166
g3
sS'address'
p167
g3
sS'email'
p168
g3
sa(dp169
S'phone_number'
p170
g3
sS'city'
p171
g3
sS'last_name'
p172
g3
sS'name'
p173
g3
sS'country'
p174
g3
sS'address'
p175
g3
sS'email'
p176
g3
sa(dp177
S'phone_number'
p178
g3
sS'city'
p179
g3
sS'last_name'
p180
g3
sS'name'
p181
g3
sS'country'
p182
g3
sS'address'
p183
g3
sS'email'
p184
g3
sa(dp185
S'phone_number'
p186
g3
sS'city'
p187
g3
sS'last_name'
p188
g3
sS'name'
p189
g3
sS'country'
p190
g3
sS'address'
p191
g3
sS'email'
p192
g3
sa(dp193
S'phone_number'
p194
g3
sS'city'
p195
g3
sS'last_name'
p196
g3
sS'name'
p197
g3
sS'country'
p198
g3
sS'address'
p199
g3
sS'email'
p200
g3
sa(dp201
S'phone_number'
p202
g3
sS'city'
p203
g3
sS'last_name'
p204
g3
sS'name'
p205
S'josh'
p206
sS'country'
p207
g3
sS'address'
p208
g3
sS'email'
p209
g3
sa(dp210
S'phone_number'
p211
S'adsfs'
p212
sS'city'
p213
S'ny'
p214
sS'last_name'
p215
S'jussim'
p216
sS'name'
p217
S'josh'
p218
sS'country'
p219
S'usa'
p220
sS'address'
p221
S'dsfds'
p222
sS'email'
p223
S'dsf'
p224
sa(dp225
S'phone_number'
p226
S'877987'
p227
sS'city'
p228
S'hbkl'
p229
sS'last_name'
p230
S'lj;'
p231
sS'name'
p232
S'josh'
p233
sS'country'
p234
S'b jh'
p235
sS'address'
p236
S'kljl'
p237
sS'email'
p238
S'kjb'
p239
sa(dp240
S'phone_number'
p241
S'410-978-8855'
p242
sS'city'
p243
S'baltimore'
p244
sS'last_name'
p245
S'lehmann'
p246
sS'name'
p247
S'micah'
p248
sS'country'
p249
S'usa'
p250
sS'address'
p251
S'7700 crossland rd'
p252
sS'email'
p253
S'mycello7@gmail.com'
p254
sa(dp255
S'phone_number'
p256
S'5645497'
p257
sS'city'
p258
S'Buenos Aires'
p259
sS'last_name'
p260
S'Iwan'
p261
sS'name'
p262
S'Andres'
p263
sS'country'
p264
S'Argentina'
p265
sS'address'
p266
S'Z 5'
p267
sS'email'
p268
S'andres.iwan@gmail.com'
p269
sa(dp270
S'phone_number'
p271
S'sadasd'
p272
sS'city'
p273
S'asd'
p274
sS'last_name'
p275
S'asdasd'
p276
sS'name'
p277
S'asd'
p278
sS'country'
p279
S'sdasdads'
p280
sS'address'
p281
S'adsasd'
p282
sS'email'
p283
S'asda'
p284
sa.