(dp0
S'phone_number'
p1
S'sadasd'
p2
sS'city'
p3
S'asd'
p4
sS'last_name'
p5
S'asdasd'
p6
sS'name'
p7
S'asd'
p8
sS'country'
p9
S'sdasdads'
p10
sS'address'
p11
S'adsasd'
p12
sS'email'
p13
S'asda'
p14
s.