(dp0
S'phone_number'
p1
S'410-978-8855'
p2
sS'city'
p3
S'baltimore'
p4
sS'last_name'
p5
S'lehmann'
p6
sS'name'
p7
S'micah'
p8
sS'country'
p9
S'usa'
p10
sS'address'
p11
S'7700 crossland rd'
p12
sS'email'
p13
S'mycello7@gmail.com'
p14
s.